target datalayout = "e-m:e-p270:32:32-p271:32:32-p272:64:64-i64:64-i128:128-f80:128-n8:16:32:64-S128"
target triple = "x86_64-pc-linux-gnu"

; Function Attrs: nounwind uwtable
define dso_local ptr @app_load_config_internal(ptr noundef %0, i32 noundef %1) #0 {
  %3 = alloca ptr, align 8
  %4 = alloca ptr, align 8
  %5 = alloca i32, align 4
  %6 = alloca ptr, align 8
  %7 = alloca ptr, align 8
  %8 = alloca i32, align 4
  store ptr %0, ptr %4, align 8, !tbaa !9
  store i32 %1, ptr %5, align 4, !tbaa !25
  call void @llvm.lifetime.start.p0(i64 8, ptr %6) #12
  call void @llvm.lifetime.start.p0(i64 8, ptr %7) #12
  %9 = load ptr, ptr %4, align 8, !tbaa !9
  %10 = icmp eq ptr %9, null
  br i1 %10, label %16, label %11

11:                                               ; preds = %2
  %12 = load ptr, ptr %4, align 8, !tbaa !9
  %13 = load i8, ptr %12, align 1, !tbaa !11
  %14 = sext i8 %13 to i32
  %15 = icmp ne i32 %14, 0
  br i1 %15, label %16, label %28

16:                                               ; preds = %11, %2
  %17 = load ptr, ptr %4, align 8, !tbaa !9
  %18 = load i32, ptr %5, align 4, !tbaa !25
  %19 = call ptr @bio_open_default_(ptr noundef %17, i8 noundef signext 114, i32 noundef 32769, i32 noundef %18)
  store ptr %19, ptr %6, align 8, !tbaa !35
  %20 = icmp eq ptr %19, null
  br i1 %20, label %21, label %22

21:                                               ; preds = %16
  store ptr null, ptr %3, align 8
  store i32 1, ptr %8, align 4
  br label %33

22:                                               ; preds = %16
  %23 = load ptr, ptr %6, align 8, !tbaa !35
  %24 = load ptr, ptr %4, align 8, !tbaa !9
  %25 = call ptr @app_load_config_bio(ptr noundef %23, ptr noundef %24)
  store ptr %25, ptr %7, align 8, !tbaa !43
  %26 = load ptr, ptr %6, align 8, !tbaa !35
  %27 = call i32 @BIO_free(ptr noundef %26)
  br label %31

28:                                               ; preds = %11
  %29 = call ptr @app_get0_libctx()
  %30 = call ptr @NCONF_new_ex(ptr noundef %29, ptr noundef null)
  store ptr %30, ptr %7, align 8, !tbaa !43
  br label %31

31:                                               ; preds = %28, %22
  %32 = load ptr, ptr %7, align 8, !tbaa !43
  store ptr %32, ptr %3, align 8
  store i32 1, ptr %8, align 4
  br label %33

33:                                               ; preds = %31, %21
  call void @llvm.lifetime.end.p0(i64 8, ptr %7) #12
  call void @llvm.lifetime.end.p0(i64 8, ptr %6) #12
  %34 = load ptr, ptr %3, align 8
  ret ptr %34
}