; Function Attrs: nounwind uwtable
define dso_local ptr @app_load_config_internal(ptr noundef %0, i32 noundef %1) local_unnamed_addr #0 {
  %3 = icmp eq ptr %0, null
  br i1 %3, label %.split, label %4

4:                                                ; preds = %2
  %5 = load i8, ptr %0, align 1, !tbaa !13
  %.not = icmp eq i8 %5, 0
  br i1 %.not, label %11, label %.split

.split:                                           ; preds = %4, %2
  %.sink = phi ptr [ null, %2 ], [ %0, %4 ]
  %6 = tail call fastcc ptr @bio_open_default_(ptr noundef %.sink, i8 noundef signext 114, i32 noundef 32769, i32 noundef %1)
  %7 = icmp eq ptr %6, null
  br i1 %7, label %14, label %8

8:                                                ; preds = %.split
  %9 = tail call ptr @app_load_config_bio(ptr noundef nonnull %6, ptr noundef %0)
  %10 = tail call i32 @BIO_free(ptr noundef nonnull %6) #27
  br label %14

11:                                               ; preds = %4
  %12 = tail call ptr @app_get0_libctx() #27
  %13 = tail call ptr @NCONF_new_ex(ptr noundef %12, ptr noundef null) #27
  br label %14

14:                                               ; preds = %8, %11, %.split
  %.08 = phi ptr [ null, %.split ], [ %9, %8 ], [ %13, %11 ]
  ret ptr %.08
}